Certificate:
    Data:
        Version: 3 (0x2)
        Serial Number: 268435667 (0x100000d3)
    Signature Algorithm: sha256WithRSAEncryption
        Issuer: C=DE, ST=Hessen, O=privacyidea, CN=CA001
        Validity
            Not Before: May  5 17:58:45 2017 GMT
            Not After : May  5 17:58:45 2018 GMT
        Subject: C=DE, ST=Hessen, O=privacyidea, CN=requester.localdomain
        Subject Public Key Info:
            Public Key Algorithm: rsaEncryption
                Public-Key: (2048 bit)
                Modulus:
                    00:cd:be:14:4f:fa:ce:01:3f:42:22:1b:1d:9c:af:
                    dd:92:d2:7f:db:6c:b7:3e:39:43:43:6b:13:03:f1:
                    05:f4:07:74:bc:76:69:28:0b:af:19:8e:d7:fc:e3:
                    cd:c6:58:f2:ca:7f:08:6d:53:fc:07:02:44:24:c6:
                    b4:34:4c:8c:04:fe:33:0e:40:e2:20:ba:02:73:5a:
                    f7:f5:4f:63:6e:cc:c6:b6:df:54:1d:37:39:7d:51:
                    36:26:5f:bd:dc:3f:a8:8b:6b:a2:ae:b6:9d:d6:21:
                    e7:df:41:b8:7a:28:2a:68:48:ca:a8:2d:ed:e1:e9:
                    46:5e:5a:72:6d:b4:84:38:87:91:fd:94:11:0b:28:
                    84:c6:c2:2f:2a:fb:01:f9:36:7a:09:75:d1:33:88:
                    3c:73:41:5b:c8:bf:94:89:70:a1:f0:c0:b9:2e:50:
                    53:1e:b1:17:64:69:f4:2d:81:e0:a9:0d:0e:32:e9:
                    ba:55:8a:85:f1:1b:6f:49:79:b4:7f:88:c3:0d:3e:
                    54:88:9b:3d:1f:38:8c:04:f3:ee:6a:63:2b:f5:c6:
                    db:b4:83:aa:c4:78:41:3a:7d:4b:e1:c8:3e:71:ca:
                    1b:61:59:ea:c6:c4:ca:32:5e:c9:e9:bf:12:29:e6:
                    c6:c3:63:fe:a0:55:da:7a:f1:60:98:4d:26:ed:fa:
                    70:2d
                Exponent: 65537 (0x10001)
        X509v3 extensions:
            X509v3 Key Usage: 
                Digital Signature, Key Encipherment
            X509v3 Basic Constraints: 
                CA:FALSE
            Netscape Cert Type: 
                SSL Server
            Netscape Comment: 
                OpenSSL Generated Server Certificate
            X509v3 Subject Key Identifier: 
                53:3F:ED:5D:09:07:B3:65:7B:AB:45:C9:24:5B:09:77:80:0A:96:ED
            X509v3 Authority Key Identifier: 
                keyid:F4:A7:C0:CC:91:46:AF:64:F3:91:F2:27:F8:C8:B2:6F:8A:87:32:73
                DirName:/C=DE/ST=Hessen/O=privacyidea/CN=CA001
                serial:FB:C8:EB:AC:83:CD:12:07

            X509v3 Extended Key Usage: 
                TLS Web Server Authentication
    Signature Algorithm: sha256WithRSAEncryption
         1b:2b:68:44:d2:e9:e9:56:4c:43:28:98:36:18:84:d3:6c:f2:
         46:ed:45:e0:d5:f9:0f:32:bf:da:a8:b5:20:5d:92:e9:c8:da:
         42:cd:d3:9d:d6:e5:ee:b9:3a:af:be:dc:1b:16:63:9a:f6:1a:
         f1:6f:0e:c7:1e:fb:e8:73:7f:75:fc:33:9b:2b:0b:22:e4:14:
         f2:07:4d:03:b2:b3:c4:c8:34:84:c4:04:34:fa:94:99:6a:c2:
         9a:ae:c0:61:bb:03:e2:f8:4f:7f:08:cc:9c:0d:9d:65:8f:1e:
         ad:a3:04:41:13:4d:28:df:e1:85:23:e6:36:52:ad:7f:40:a6:
         d5:03:d7:8a:02:4b:57:0c:a3:03:0a:9a:05:c5:be:33:75:30:
         e6:57:6a:84:cb:57:23:c6:32:fc:fb:45:c7:3b:f3:fb:e6:a4:
         7b:96:8c:7e:ec:65:69:ee:4b:86:c3:22:e4:5a:35:ce:ca:28:
         58:9c:86:26:33:65:aa:ea:d4:dd:39:0c:fc:bc:ca:f2:0a:5b:
         db:a1:a5:05:2c:a2:bd:bc:2c:6e:08:fc:f0:ae:4e:32:c9:c7:
         4e:ca:e3:92:72:c0:15:9a:8f:0b:1a:2f:5d:0d:e9:c5:c3:cf:
         66:9c:75:62:44:1e:10:36:1b:9a:0e:7c:48:90:8d:f6:9f:50:
         ac:12:a0:38
-----BEGIN CERTIFICATE-----
MIIEJjCCAw6gAwIBAgIEEAAA0zANBgkqhkiG9w0BAQsFADBEMQswCQYDVQQGEwJE
RTEPMA0GA1UECAwGSGVzc2VuMRQwEgYDVQQKDAtwcml2YWN5aWRlYTEOMAwGA1UE
AwwFQ0EwMDEwHhcNMTcwNTA1MTc1ODQ1WhcNMTgwNTA1MTc1ODQ1WjBUMQswCQYD
VQQGEwJERTEPMA0GA1UECAwGSGVzc2VuMRQwEgYDVQQKDAtwcml2YWN5aWRlYTEe
MBwGA1UEAwwVcmVxdWVzdGVyLmxvY2FsZG9tYWluMIIBIjANBgkqhkiG9w0BAQEF
AAOCAQ8AMIIBCgKCAQEAzb4UT/rOAT9CIhsdnK/dktJ/22y3PjlDQ2sTA/EF9Ad0
vHZpKAuvGY7X/OPNxljyyn8IbVP8BwJEJMa0NEyMBP4zDkDiILoCc1r39U9jbszG
tt9UHTc5fVE2Jl+93D+oi2uirrad1iHn30G4eigqaEjKqC3t4elGXlpybbSEOIeR
/ZQRCyiExsIvKvsB+TZ6CXXRM4g8c0FbyL+UiXCh8MC5LlBTHrEXZGn0LYHgqQ0O
Mum6VYqF8RtvSXm0f4jDDT5UiJs9HziMBPPuamMr9cbbtIOqxHhBOn1L4cg+ccob
YVnqxsTKMl7J6b8SKebGw2P+oFXaevFgmE0m7fpwLQIDAQABo4IBDjCCAQowCwYD
VR0PBAQDAgWgMAkGA1UdEwQCMAAwEQYJYIZIAYb4QgEBBAQDAgZAMDMGCWCGSAGG
+EIBDQQmFiRPcGVuU1NMIEdlbmVyYXRlZCBTZXJ2ZXIgQ2VydGlmaWNhdGUwHQYD
VR0OBBYEFFM/7V0JB7Nle6tFySRbCXeACpbtMHQGA1UdIwRtMGuAFPSnwMyRRq9k
85HyJ/jIsm+KhzJzoUikRjBEMQswCQYDVQQGEwJERTEPMA0GA1UECAwGSGVzc2Vu
MRQwEgYDVQQKDAtwcml2YWN5aWRlYTEOMAwGA1UEAwwFQ0EwMDGCCQD7yOusg80S
BzATBgNVHSUEDDAKBggrBgEFBQcDATANBgkqhkiG9w0BAQsFAAOCAQEAGytoRNLp
6VZMQyiYNhiE02zyRu1F4NX5DzK/2qi1IF2S6cjaQs3Tndbl7rk6r77cGxZjmvYa
8W8Oxx776HN/dfwzmysLIuQU8gdNA7KzxMg0hMQENPqUmWrCmq7AYbsD4vhPfwjM
nA2dZY8eraMEQRNNKN/hhSPmNlKtf0Cm1QPXigJLVwyjAwqaBcW+M3Uw5ldqhMtX
I8Yy/PtFxzvz++ake5aMfuxlae5LhsMi5Fo1zsooWJyGJjNlqurU3TkM/LzK8gpb
26GlBSyivbwsbgj88K5OMsnHTsrjknLAFZqPCxovXQ3pxcPPZpx1YkQeEDYbmg58
SJCN9p9QrBKgOA==
-----END CERTIFICATE-----
