Certificate:
    Data:
        Version: 3 (0x2)
        Serial Number: 268435668 (0x100000d4)
    Signature Algorithm: sha256WithRSAEncryption
        Issuer: C=DE, ST=Hessen, O=privacyidea, CN=CA001
        Validity
            Not Before: May  5 17:58:45 2017 GMT
            Not After : May  5 17:58:45 2018 GMT
        Subject: C=DE, ST=Hessen, O=privacyidea, CN=usercert
        Subject Public Key Info:
            Public Key Algorithm: rsaEncryption
                Public-Key: (2048 bit)
                Modulus:
                    00:dc:2f:d1:5f:29:97:d4:7c:c3:53:c8:30:bd:4b:
                    67:70:2c:24:6b:b8:5e:eb:21:7a:48:12:56:7c:81:
                    5c:48:75:b6:68:eb:f6:f2:98:4e:50:51:d1:7f:6c:
                    73:f3:0a:a7:ae:be:48:5e:e5:d6:e1:d9:2a:7c:32:
                    6e:4e:fd:08:f6:5a:54:49:23:73:c3:b9:07:18:d1:
                    ef:b3:ac:f8:8a:dc:94:96:a4:90:3a:8e:74:df:e6:
                    0d:37:1b:bd:5b:b7:25:1a:56:39:da:6f:91:aa:5e:
                    1c:74:f3:f9:7c:14:01:83:12:65:76:c7:bb:fe:36:
                    5b:95:e9:72:65:83:ed:3e:98:30:71:fa:87:dd:a3:
                    36:5a:30:03:2e:26:e0:61:d1:bf:02:3f:b6:06:1f:
                    4a:89:28:1c:5c:a2:ff:4e:be:94:e6:8c:e0:da:82:
                    f1:9d:29:32:48:30:73:b4:04:f6:42:1e:be:f7:e2:
                    32:32:27:3c:9d:89:2f:70:3e:85:9a:6f:5c:c5:09:
                    c0:8c:32:2f:72:22:c9:d2:95:1f:b6:ac:72:60:72:
                    b7:82:4d:6b:ce:5b:e3:00:d0:d2:2f:58:c6:e0:10:
                    e5:51:ca:4d:3b:2e:e6:7e:ab:84:d6:56:f1:93:35:
                    a0:93:64:26:81:75:2f:91:b5:16:06:38:0b:db:cc:
                    2d:07
                Exponent: 65537 (0x10001)
        X509v3 extensions:
            X509v3 Key Usage: 
                Digital Signature, Key Encipherment
            X509v3 Basic Constraints: 
                CA:FALSE
            Netscape Cert Type: 
                SSL Server
            Netscape Comment: 
                OpenSSL Generated Server Certificate
            X509v3 Subject Key Identifier: 
                FC:14:D1:F0:4B:8D:00:90:F2:F5:B8:71:9E:4E:97:C3:92:54:AD:0B
            X509v3 Authority Key Identifier: 
                keyid:F4:A7:C0:CC:91:46:AF:64:F3:91:F2:27:F8:C8:B2:6F:8A:87:32:73
                DirName:/C=DE/ST=Hessen/O=privacyidea/CN=CA001
                serial:FB:C8:EB:AC:83:CD:12:07

            X509v3 Extended Key Usage: 
                TLS Web Server Authentication
    Signature Algorithm: sha256WithRSAEncryption
         49:a4:7b:30:b0:f9:f0:f5:99:fd:61:a9:f0:6f:4c:d6:b2:5b:
         8d:45:50:88:39:25:41:d0:5d:83:28:e2:78:34:be:28:f2:1c:
         79:c8:75:64:d6:2a:49:22:28:8f:c5:68:c6:9c:75:1e:a3:38:
         4c:19:c3:9b:1a:84:a6:93:2f:16:ef:24:c3:a5:47:58:9e:5e:
         47:d8:a9:c2:4f:d1:0e:20:1a:37:14:c3:26:d5:4e:53:8f:22:
         72:08:4c:ae:28:07:84:ce:0c:7e:ce:cb:01:92:9e:6f:d9:8a:
         17:63:67:94:fc:c6:55:2e:a4:c8:ea:e4:35:8a:c3:09:3c:cd:
         fd:bb:1f:5c:d8:52:f8:07:0c:a2:d2:94:57:58:d4:86:8c:21:
         f1:bf:3e:f9:de:a1:44:39:28:8a:54:6e:8a:bc:33:69:cc:79:
         53:75:c6:7c:27:62:6d:5b:29:c7:25:a0:2e:9c:6b:d7:69:85:
         e9:b7:a0:0e:a5:a1:90:de:c2:e5:3f:49:18:b5:ec:d8:73:32:
         58:de:3e:97:1d:02:c0:62:ca:61:a0:73:c1:81:ef:51:74:cd:
         42:cc:2f:4d:8c:31:19:b7:57:92:23:3d:d5:ff:16:ad:46:29:
         7e:4d:a2:10:65:f4:1a:c1:d4:e5:f4:39:b3:aa:ab:b3:60:db:
         ac:c2:f5:cc
-----BEGIN CERTIFICATE-----
MIIEGTCCAwGgAwIBAgIEEAAA1DANBgkqhkiG9w0BAQsFADBEMQswCQYDVQQGEwJE
RTEPMA0GA1UECAwGSGVzc2VuMRQwEgYDVQQKDAtwcml2YWN5aWRlYTEOMAwGA1UE
AwwFQ0EwMDEwHhcNMTcwNTA1MTc1ODQ1WhcNMTgwNTA1MTc1ODQ1WjBHMQswCQYD
VQQGEwJERTEPMA0GA1UECAwGSGVzc2VuMRQwEgYDVQQKDAtwcml2YWN5aWRlYTER
MA8GA1UEAwwIdXNlcmNlcnQwggEiMA0GCSqGSIb3DQEBAQUAA4IBDwAwggEKAoIB
AQDcL9FfKZfUfMNTyDC9S2dwLCRruF7rIXpIElZ8gVxIdbZo6/bymE5QUdF/bHPz
Cqeuvkhe5dbh2Sp8Mm5O/Qj2WlRJI3PDuQcY0e+zrPiK3JSWpJA6jnTf5g03G71b
tyUaVjnab5GqXhx08/l8FAGDEmV2x7v+NluV6XJlg+0+mDBx+ofdozZaMAMuJuBh
0b8CP7YGH0qJKBxcov9OvpTmjODagvGdKTJIMHO0BPZCHr734jIyJzydiS9wPoWa
b1zFCcCMMi9yIsnSlR+2rHJgcreCTWvOW+MA0NIvWMbgEOVRyk07LuZ+q4TWVvGT
NaCTZCaBdS+RtRYGOAvbzC0HAgMBAAGjggEOMIIBCjALBgNVHQ8EBAMCBaAwCQYD
VR0TBAIwADARBglghkgBhvhCAQEEBAMCBkAwMwYJYIZIAYb4QgENBCYWJE9wZW5T
U0wgR2VuZXJhdGVkIFNlcnZlciBDZXJ0aWZpY2F0ZTAdBgNVHQ4EFgQU/BTR8EuN
AJDy9bhxnk6Xw5JUrQswdAYDVR0jBG0wa4AU9KfAzJFGr2TzkfIn+Miyb4qHMnOh
SKRGMEQxCzAJBgNVBAYTAkRFMQ8wDQYDVQQIDAZIZXNzZW4xFDASBgNVBAoMC3By
aXZhY3lpZGVhMQ4wDAYDVQQDDAVDQTAwMYIJAPvI66yDzRIHMBMGA1UdJQQMMAoG
CCsGAQUFBwMBMA0GCSqGSIb3DQEBCwUAA4IBAQBJpHswsPnw9Zn9Yanwb0zWsluN
RVCIOSVB0F2DKOJ4NL4o8hx5yHVk1ipJIiiPxWjGnHUeozhMGcObGoSmky8W7yTD
pUdYnl5H2KnCT9EOIBo3FMMm1U5TjyJyCEyuKAeEzgx+zssBkp5v2YoXY2eU/MZV
LqTI6uQ1isMJPM39ux9c2FL4Bwyi0pRXWNSGjCHxvz753qFEOSiKVG6KvDNpzHlT
dcZ8J2JtWynHJaAunGvXaYXpt6AOpaGQ3sLlP0kYtezYczJY3j6XHQLAYsphoHPB
ge9RdM1CzC9NjDEZt1eSIz3V/xatRil+TaIQZfQawdTl9DmzqquzYNuswvXM
-----END CERTIFICATE-----
