Certificate:
    Data:
        Version: 3 (0x2)
        Serial Number: 268435664 (0x100000d0)
    Signature Algorithm: sha256WithRSAEncryption
        Issuer: C=DE, ST=Hessen, O=privacyidea, CN=CA001
        Validity
            Not Before: May  5 17:23:43 2017 GMT
            Not After : May  5 17:23:43 2018 GMT
        Subject: C=DE, ST=Hessen, O=privacyidea, CN=requester.localdomain
        Subject Public Key Info:
            Public Key Algorithm: rsaEncryption
                Public-Key: (2048 bit)
                Modulus:
                    00:cd:be:14:4f:fa:ce:01:3f:42:22:1b:1d:9c:af:
                    dd:92:d2:7f:db:6c:b7:3e:39:43:43:6b:13:03:f1:
                    05:f4:07:74:bc:76:69:28:0b:af:19:8e:d7:fc:e3:
                    cd:c6:58:f2:ca:7f:08:6d:53:fc:07:02:44:24:c6:
                    b4:34:4c:8c:04:fe:33:0e:40:e2:20:ba:02:73:5a:
                    f7:f5:4f:63:6e:cc:c6:b6:df:54:1d:37:39:7d:51:
                    36:26:5f:bd:dc:3f:a8:8b:6b:a2:ae:b6:9d:d6:21:
                    e7:df:41:b8:7a:28:2a:68:48:ca:a8:2d:ed:e1:e9:
                    46:5e:5a:72:6d:b4:84:38:87:91:fd:94:11:0b:28:
                    84:c6:c2:2f:2a:fb:01:f9:36:7a:09:75:d1:33:88:
                    3c:73:41:5b:c8:bf:94:89:70:a1:f0:c0:b9:2e:50:
                    53:1e:b1:17:64:69:f4:2d:81:e0:a9:0d:0e:32:e9:
                    ba:55:8a:85:f1:1b:6f:49:79:b4:7f:88:c3:0d:3e:
                    54:88:9b:3d:1f:38:8c:04:f3:ee:6a:63:2b:f5:c6:
                    db:b4:83:aa:c4:78:41:3a:7d:4b:e1:c8:3e:71:ca:
                    1b:61:59:ea:c6:c4:ca:32:5e:c9:e9:bf:12:29:e6:
                    c6:c3:63:fe:a0:55:da:7a:f1:60:98:4d:26:ed:fa:
                    70:2d
                Exponent: 65537 (0x10001)
        X509v3 extensions:
            X509v3 Key Usage: 
                Digital Signature, Key Encipherment
            X509v3 Basic Constraints: 
                CA:FALSE
            Netscape Cert Type: 
                SSL Server
            Netscape Comment: 
                OpenSSL Generated Server Certificate
            X509v3 Subject Key Identifier: 
                53:3F:ED:5D:09:07:B3:65:7B:AB:45:C9:24:5B:09:77:80:0A:96:ED
            X509v3 Authority Key Identifier: 
                keyid:F4:A7:C0:CC:91:46:AF:64:F3:91:F2:27:F8:C8:B2:6F:8A:87:32:73
                DirName:/C=DE/ST=Hessen/O=privacyidea/CN=CA001
                serial:FB:C8:EB:AC:83:CD:12:07

            X509v3 Extended Key Usage: 
                TLS Web Server Authentication
    Signature Algorithm: sha256WithRSAEncryption
         3b:2b:af:8b:b2:0c:be:60:a8:8e:4c:d0:16:c2:b2:f9:99:0d:
         b6:2d:90:bc:d0:23:55:da:e8:22:3b:56:ec:96:23:53:23:4a:
         82:d2:f8:30:6f:84:e1:1b:1f:1f:c8:99:af:46:94:59:b7:11:
         13:5f:51:dc:b1:12:77:c5:e3:f1:78:80:d3:d5:f9:c8:30:e5:
         6a:4e:17:7b:da:ed:fa:0c:eb:d6:1b:44:66:52:b2:8a:24:4a:
         59:60:26:7e:4d:e1:d7:fe:23:ca:5a:80:87:33:56:27:3b:cc:
         5c:7b:40:f4:b8:36:cf:0a:bb:60:76:2d:7b:15:3f:bb:d9:b4:
         cd:c6:7f:e5:2a:77:70:72:fe:df:fc:95:d1:6f:ee:39:7f:c4:
         76:76:8f:1a:a5:10:28:a9:ee:4c:33:9d:bf:37:61:0e:5e:97:
         fb:d2:7c:d4:4a:cd:64:92:97:3e:59:33:90:a5:9f:71:8a:a4:
         39:0e:fb:4a:01:20:ae:4b:7c:95:5a:d1:42:af:50:1f:51:64:
         1f:6c:d5:bf:dc:f4:94:53:d0:57:c7:6d:8c:36:fe:49:be:a4:
         ba:66:1f:71:9f:ec:6d:8f:9d:f7:a2:27:d4:e4:2d:55:09:4b:
         85:c5:d2:2e:da:e2:4e:7d:9f:f2:f6:be:29:31:0a:64:17:23:
         c5:55:ac:4d
-----BEGIN CERTIFICATE-----
MIIEJjCCAw6gAwIBAgIEEAAA0DANBgkqhkiG9w0BAQsFADBEMQswCQYDVQQGEwJE
RTEPMA0GA1UECAwGSGVzc2VuMRQwEgYDVQQKDAtwcml2YWN5aWRlYTEOMAwGA1UE
AwwFQ0EwMDEwHhcNMTcwNTA1MTcyMzQzWhcNMTgwNTA1MTcyMzQzWjBUMQswCQYD
VQQGEwJERTEPMA0GA1UECAwGSGVzc2VuMRQwEgYDVQQKDAtwcml2YWN5aWRlYTEe
MBwGA1UEAwwVcmVxdWVzdGVyLmxvY2FsZG9tYWluMIIBIjANBgkqhkiG9w0BAQEF
AAOCAQ8AMIIBCgKCAQEAzb4UT/rOAT9CIhsdnK/dktJ/22y3PjlDQ2sTA/EF9Ad0
vHZpKAuvGY7X/OPNxljyyn8IbVP8BwJEJMa0NEyMBP4zDkDiILoCc1r39U9jbszG
tt9UHTc5fVE2Jl+93D+oi2uirrad1iHn30G4eigqaEjKqC3t4elGXlpybbSEOIeR
/ZQRCyiExsIvKvsB+TZ6CXXRM4g8c0FbyL+UiXCh8MC5LlBTHrEXZGn0LYHgqQ0O
Mum6VYqF8RtvSXm0f4jDDT5UiJs9HziMBPPuamMr9cbbtIOqxHhBOn1L4cg+ccob
YVnqxsTKMl7J6b8SKebGw2P+oFXaevFgmE0m7fpwLQIDAQABo4IBDjCCAQowCwYD
VR0PBAQDAgWgMAkGA1UdEwQCMAAwEQYJYIZIAYb4QgEBBAQDAgZAMDMGCWCGSAGG
+EIBDQQmFiRPcGVuU1NMIEdlbmVyYXRlZCBTZXJ2ZXIgQ2VydGlmaWNhdGUwHQYD
VR0OBBYEFFM/7V0JB7Nle6tFySRbCXeACpbtMHQGA1UdIwRtMGuAFPSnwMyRRq9k
85HyJ/jIsm+KhzJzoUikRjBEMQswCQYDVQQGEwJERTEPMA0GA1UECAwGSGVzc2Vu
MRQwEgYDVQQKDAtwcml2YWN5aWRlYTEOMAwGA1UEAwwFQ0EwMDGCCQD7yOusg80S
BzATBgNVHSUEDDAKBggrBgEFBQcDATANBgkqhkiG9w0BAQsFAAOCAQEAOyuvi7IM
vmCojkzQFsKy+ZkNti2QvNAjVdroIjtW7JYjUyNKgtL4MG+E4RsfH8iZr0aUWbcR
E19R3LESd8Xj8XiA09X5yDDlak4Xe9rt+gzr1htEZlKyiiRKWWAmfk3h1/4jylqA
hzNWJzvMXHtA9Lg2zwq7YHYtexU/u9m0zcZ/5Sp3cHL+3/yV0W/uOX/EdnaPGqUQ
KKnuTDOdvzdhDl6X+9J81ErNZJKXPlkzkKWfcYqkOQ77SgEgrkt8lVrRQq9QH1Fk
H2zVv9z0lFPQV8dtjDb+Sb6kumYfcZ/sbY+d96In1OQtVQlLhcXSLtriTn2f8va+
KTEKZBcjxVWsTQ==
-----END CERTIFICATE-----
