Certificate:
    Data:
        Version: 3 (0x2)
        Serial Number: 268435666 (0x100000d2)
    Signature Algorithm: sha256WithRSAEncryption
        Issuer: C=DE, ST=Hessen, O=privacyidea, CN=CA001
        Validity
            Not Before: May  5 17:57:07 2017 GMT
            Not After : May  5 17:57:07 2018 GMT
        Subject: C=DE, ST=Hessen, O=privacyidea, CN=requester.localdomain
        Subject Public Key Info:
            Public Key Algorithm: rsaEncryption
                Public-Key: (2048 bit)
                Modulus:
                    00:cd:be:14:4f:fa:ce:01:3f:42:22:1b:1d:9c:af:
                    dd:92:d2:7f:db:6c:b7:3e:39:43:43:6b:13:03:f1:
                    05:f4:07:74:bc:76:69:28:0b:af:19:8e:d7:fc:e3:
                    cd:c6:58:f2:ca:7f:08:6d:53:fc:07:02:44:24:c6:
                    b4:34:4c:8c:04:fe:33:0e:40:e2:20:ba:02:73:5a:
                    f7:f5:4f:63:6e:cc:c6:b6:df:54:1d:37:39:7d:51:
                    36:26:5f:bd:dc:3f:a8:8b:6b:a2:ae:b6:9d:d6:21:
                    e7:df:41:b8:7a:28:2a:68:48:ca:a8:2d:ed:e1:e9:
                    46:5e:5a:72:6d:b4:84:38:87:91:fd:94:11:0b:28:
                    84:c6:c2:2f:2a:fb:01:f9:36:7a:09:75:d1:33:88:
                    3c:73:41:5b:c8:bf:94:89:70:a1:f0:c0:b9:2e:50:
                    53:1e:b1:17:64:69:f4:2d:81:e0:a9:0d:0e:32:e9:
                    ba:55:8a:85:f1:1b:6f:49:79:b4:7f:88:c3:0d:3e:
                    54:88:9b:3d:1f:38:8c:04:f3:ee:6a:63:2b:f5:c6:
                    db:b4:83:aa:c4:78:41:3a:7d:4b:e1:c8:3e:71:ca:
                    1b:61:59:ea:c6:c4:ca:32:5e:c9:e9:bf:12:29:e6:
                    c6:c3:63:fe:a0:55:da:7a:f1:60:98:4d:26:ed:fa:
                    70:2d
                Exponent: 65537 (0x10001)
        X509v3 extensions:
            X509v3 Key Usage: 
                Digital Signature, Key Encipherment
            X509v3 Basic Constraints: 
                CA:FALSE
            Netscape Cert Type: 
                SSL Server
            Netscape Comment: 
                OpenSSL Generated Server Certificate
            X509v3 Subject Key Identifier: 
                53:3F:ED:5D:09:07:B3:65:7B:AB:45:C9:24:5B:09:77:80:0A:96:ED
            X509v3 Authority Key Identifier: 
                keyid:F4:A7:C0:CC:91:46:AF:64:F3:91:F2:27:F8:C8:B2:6F:8A:87:32:73
                DirName:/C=DE/ST=Hessen/O=privacyidea/CN=CA001
                serial:FB:C8:EB:AC:83:CD:12:07

            X509v3 Extended Key Usage: 
                TLS Web Server Authentication
    Signature Algorithm: sha256WithRSAEncryption
         28:b7:9c:89:f4:d6:8f:01:8e:a7:91:6e:ce:f7:1a:82:43:af:
         53:ed:ec:4c:c5:d4:b7:7e:c4:48:85:eb:25:47:53:4c:25:00:
         63:de:95:95:e1:db:29:1d:6d:3e:0f:b8:b4:fb:a7:ea:93:89:
         b2:56:d7:5a:82:32:fc:6d:4f:80:b7:00:dc:d6:ef:aa:ac:93:
         15:a3:5d:2b:3a:75:be:b9:26:c5:7c:f2:47:26:d3:54:41:38:
         03:2f:7e:fd:ba:b7:83:62:8b:96:ff:1d:57:98:29:28:71:d1:
         4a:68:4a:99:cf:86:6e:3f:2d:73:d0:37:85:49:20:94:46:7b:
         4c:72:44:d5:86:e9:e1:f2:bb:80:bb:c3:5f:99:e9:a6:68:72:
         b9:b7:e3:6e:21:a9:41:b8:59:09:d8:45:f3:16:08:69:12:0b:
         1b:66:34:f6:03:0e:d8:4e:6f:1c:5b:7d:45:19:55:2a:cc:25:
         ca:69:97:b9:46:c1:6d:ad:7b:2d:43:aa:72:9c:38:0c:1f:cf:
         62:46:94:f9:01:2d:7e:75:a0:e2:fd:c8:20:54:c1:54:6e:ab:
         1c:3b:44:02:66:30:45:c0:54:ba:91:38:23:ff:2b:29:73:e6:
         eb:5b:91:a6:55:3f:7f:43:cd:31:01:dc:24:d6:6e:c5:ed:15:
         1f:f3:f9:09
-----BEGIN CERTIFICATE-----
MIIEJjCCAw6gAwIBAgIEEAAA0jANBgkqhkiG9w0BAQsFADBEMQswCQYDVQQGEwJE
RTEPMA0GA1UECAwGSGVzc2VuMRQwEgYDVQQKDAtwcml2YWN5aWRlYTEOMAwGA1UE
AwwFQ0EwMDEwHhcNMTcwNTA1MTc1NzA3WhcNMTgwNTA1MTc1NzA3WjBUMQswCQYD
VQQGEwJERTEPMA0GA1UECAwGSGVzc2VuMRQwEgYDVQQKDAtwcml2YWN5aWRlYTEe
MBwGA1UEAwwVcmVxdWVzdGVyLmxvY2FsZG9tYWluMIIBIjANBgkqhkiG9w0BAQEF
AAOCAQ8AMIIBCgKCAQEAzb4UT/rOAT9CIhsdnK/dktJ/22y3PjlDQ2sTA/EF9Ad0
vHZpKAuvGY7X/OPNxljyyn8IbVP8BwJEJMa0NEyMBP4zDkDiILoCc1r39U9jbszG
tt9UHTc5fVE2Jl+93D+oi2uirrad1iHn30G4eigqaEjKqC3t4elGXlpybbSEOIeR
/ZQRCyiExsIvKvsB+TZ6CXXRM4g8c0FbyL+UiXCh8MC5LlBTHrEXZGn0LYHgqQ0O
Mum6VYqF8RtvSXm0f4jDDT5UiJs9HziMBPPuamMr9cbbtIOqxHhBOn1L4cg+ccob
YVnqxsTKMl7J6b8SKebGw2P+oFXaevFgmE0m7fpwLQIDAQABo4IBDjCCAQowCwYD
VR0PBAQDAgWgMAkGA1UdEwQCMAAwEQYJYIZIAYb4QgEBBAQDAgZAMDMGCWCGSAGG
+EIBDQQmFiRPcGVuU1NMIEdlbmVyYXRlZCBTZXJ2ZXIgQ2VydGlmaWNhdGUwHQYD
VR0OBBYEFFM/7V0JB7Nle6tFySRbCXeACpbtMHQGA1UdIwRtMGuAFPSnwMyRRq9k
85HyJ/jIsm+KhzJzoUikRjBEMQswCQYDVQQGEwJERTEPMA0GA1UECAwGSGVzc2Vu
MRQwEgYDVQQKDAtwcml2YWN5aWRlYTEOMAwGA1UEAwwFQ0EwMDGCCQD7yOusg80S
BzATBgNVHSUEDDAKBggrBgEFBQcDATANBgkqhkiG9w0BAQsFAAOCAQEAKLecifTW
jwGOp5FuzvcagkOvU+3sTMXUt37ESIXrJUdTTCUAY96VleHbKR1tPg+4tPun6pOJ
slbXWoIy/G1PgLcA3NbvqqyTFaNdKzp1vrkmxXzyRybTVEE4Ay9+/bq3g2KLlv8d
V5gpKHHRSmhKmc+Gbj8tc9A3hUkglEZ7THJE1Ybp4fK7gLvDX5nppmhyubfjbiGp
QbhZCdhF8xYIaRILG2Y09gMO2E5vHFt9RRlVKswlymmXuUbBba17LUOqcpw4DB/P
YkaU+QEtfnWg4v3IIFTBVG6rHDtEAmYwRcBUupE4I/8rKXPm61uRplU/f0PNMQHc
JNZuxe0VH/P5CQ==
-----END CERTIFICATE-----
