Certificate:
    Data:
        Version: 3 (0x2)
        Serial Number: 268435665 (0x100000d1)
    Signature Algorithm: sha256WithRSAEncryption
        Issuer: C=DE, ST=Hessen, O=privacyidea, CN=CA001
        Validity
            Not Before: May  5 17:54:32 2017 GMT
            Not After : May  5 17:54:32 2018 GMT
        Subject: C=DE, ST=Hessen, O=privacyidea, CN=requester.localdomain
        Subject Public Key Info:
            Public Key Algorithm: rsaEncryption
                Public-Key: (2048 bit)
                Modulus:
                    00:cd:be:14:4f:fa:ce:01:3f:42:22:1b:1d:9c:af:
                    dd:92:d2:7f:db:6c:b7:3e:39:43:43:6b:13:03:f1:
                    05:f4:07:74:bc:76:69:28:0b:af:19:8e:d7:fc:e3:
                    cd:c6:58:f2:ca:7f:08:6d:53:fc:07:02:44:24:c6:
                    b4:34:4c:8c:04:fe:33:0e:40:e2:20:ba:02:73:5a:
                    f7:f5:4f:63:6e:cc:c6:b6:df:54:1d:37:39:7d:51:
                    36:26:5f:bd:dc:3f:a8:8b:6b:a2:ae:b6:9d:d6:21:
                    e7:df:41:b8:7a:28:2a:68:48:ca:a8:2d:ed:e1:e9:
                    46:5e:5a:72:6d:b4:84:38:87:91:fd:94:11:0b:28:
                    84:c6:c2:2f:2a:fb:01:f9:36:7a:09:75:d1:33:88:
                    3c:73:41:5b:c8:bf:94:89:70:a1:f0:c0:b9:2e:50:
                    53:1e:b1:17:64:69:f4:2d:81:e0:a9:0d:0e:32:e9:
                    ba:55:8a:85:f1:1b:6f:49:79:b4:7f:88:c3:0d:3e:
                    54:88:9b:3d:1f:38:8c:04:f3:ee:6a:63:2b:f5:c6:
                    db:b4:83:aa:c4:78:41:3a:7d:4b:e1:c8:3e:71:ca:
                    1b:61:59:ea:c6:c4:ca:32:5e:c9:e9:bf:12:29:e6:
                    c6:c3:63:fe:a0:55:da:7a:f1:60:98:4d:26:ed:fa:
                    70:2d
                Exponent: 65537 (0x10001)
        X509v3 extensions:
            X509v3 Key Usage: 
                Digital Signature, Key Encipherment
            X509v3 Basic Constraints: 
                CA:FALSE
            Netscape Cert Type: 
                SSL Server
            Netscape Comment: 
                OpenSSL Generated Server Certificate
            X509v3 Subject Key Identifier: 
                53:3F:ED:5D:09:07:B3:65:7B:AB:45:C9:24:5B:09:77:80:0A:96:ED
            X509v3 Authority Key Identifier: 
                keyid:F4:A7:C0:CC:91:46:AF:64:F3:91:F2:27:F8:C8:B2:6F:8A:87:32:73
                DirName:/C=DE/ST=Hessen/O=privacyidea/CN=CA001
                serial:FB:C8:EB:AC:83:CD:12:07

            X509v3 Extended Key Usage: 
                TLS Web Server Authentication
    Signature Algorithm: sha256WithRSAEncryption
         4a:89:53:d6:e4:5a:8a:05:37:f6:41:b8:b4:db:22:dc:98:93:
         90:c0:80:8b:6e:14:4e:64:da:c3:2f:76:76:99:01:39:e9:09:
         43:56:32:2c:31:ce:57:1f:4c:3c:6c:29:7c:48:dd:1c:ab:cd:
         87:21:8f:ea:14:fc:5a:dc:40:2b:15:b1:27:fb:d0:5d:86:62:
         da:86:54:4b:cb:95:96:ed:d1:82:c1:b9:4d:05:9b:0c:9c:2e:
         52:90:69:af:33:08:47:32:ef:99:52:76:bf:e7:74:3d:f9:5f:
         c9:0d:46:a8:52:88:89:75:52:0e:56:dd:fc:c7:43:68:f0:7b:
         2f:c8:c6:6c:7b:10:34:98:0f:e9:33:e0:e3:ee:79:49:ca:33:
         cc:06:44:86:69:18:68:79:a8:59:99:11:2b:0b:b5:71:a4:06:
         12:4e:c6:d5:98:27:e5:cd:ec:20:26:7b:29:4f:b7:89:2f:1c:
         a2:4a:21:20:a0:3b:41:8b:42:e3:04:3c:7c:c1:aa:a3:a7:16:
         3a:ac:e7:fb:99:1c:67:43:30:46:a8:20:4d:71:de:be:7b:3d:
         14:ff:c9:04:b8:62:a1:1b:90:4f:e5:a4:5c:bf:ad:7a:dd:bc:
         ed:66:f8:70:f3:eb:6a:5d:7d:25:d9:18:a3:2a:2a:69:aa:4f:
         5a:c6:85:96
-----BEGIN CERTIFICATE-----
MIIEJjCCAw6gAwIBAgIEEAAA0TANBgkqhkiG9w0BAQsFADBEMQswCQYDVQQGEwJE
RTEPMA0GA1UECAwGSGVzc2VuMRQwEgYDVQQKDAtwcml2YWN5aWRlYTEOMAwGA1UE
AwwFQ0EwMDEwHhcNMTcwNTA1MTc1NDMyWhcNMTgwNTA1MTc1NDMyWjBUMQswCQYD
VQQGEwJERTEPMA0GA1UECAwGSGVzc2VuMRQwEgYDVQQKDAtwcml2YWN5aWRlYTEe
MBwGA1UEAwwVcmVxdWVzdGVyLmxvY2FsZG9tYWluMIIBIjANBgkqhkiG9w0BAQEF
AAOCAQ8AMIIBCgKCAQEAzb4UT/rOAT9CIhsdnK/dktJ/22y3PjlDQ2sTA/EF9Ad0
vHZpKAuvGY7X/OPNxljyyn8IbVP8BwJEJMa0NEyMBP4zDkDiILoCc1r39U9jbszG
tt9UHTc5fVE2Jl+93D+oi2uirrad1iHn30G4eigqaEjKqC3t4elGXlpybbSEOIeR
/ZQRCyiExsIvKvsB+TZ6CXXRM4g8c0FbyL+UiXCh8MC5LlBTHrEXZGn0LYHgqQ0O
Mum6VYqF8RtvSXm0f4jDDT5UiJs9HziMBPPuamMr9cbbtIOqxHhBOn1L4cg+ccob
YVnqxsTKMl7J6b8SKebGw2P+oFXaevFgmE0m7fpwLQIDAQABo4IBDjCCAQowCwYD
VR0PBAQDAgWgMAkGA1UdEwQCMAAwEQYJYIZIAYb4QgEBBAQDAgZAMDMGCWCGSAGG
+EIBDQQmFiRPcGVuU1NMIEdlbmVyYXRlZCBTZXJ2ZXIgQ2VydGlmaWNhdGUwHQYD
VR0OBBYEFFM/7V0JB7Nle6tFySRbCXeACpbtMHQGA1UdIwRtMGuAFPSnwMyRRq9k
85HyJ/jIsm+KhzJzoUikRjBEMQswCQYDVQQGEwJERTEPMA0GA1UECAwGSGVzc2Vu
MRQwEgYDVQQKDAtwcml2YWN5aWRlYTEOMAwGA1UEAwwFQ0EwMDGCCQD7yOusg80S
BzATBgNVHSUEDDAKBggrBgEFBQcDATANBgkqhkiG9w0BAQsFAAOCAQEASolT1uRa
igU39kG4tNsi3JiTkMCAi24UTmTawy92dpkBOekJQ1YyLDHOVx9MPGwpfEjdHKvN
hyGP6hT8WtxAKxWxJ/vQXYZi2oZUS8uVlu3RgsG5TQWbDJwuUpBprzMIRzLvmVJ2
v+d0PflfyQ1GqFKIiXVSDlbd/MdDaPB7L8jGbHsQNJgP6TPg4+55ScozzAZEhmkY
aHmoWZkRKwu1caQGEk7G1Zgn5c3sICZ7KU+3iS8cokohIKA7QYtC4wQ8fMGqo6cW
Oqzn+5kcZ0MwRqggTXHevns9FP/JBLhioRuQT+WkXL+tet287Wb4cPPral19JdkY
oyoqaapPWsaFlg==
-----END CERTIFICATE-----
