Certificate:
    Data:
        Version: 3 (0x2)
        Serial Number: 268435670 (0x100000d6)
    Signature Algorithm: sha256WithRSAEncryption
        Issuer: C=DE, ST=Hessen, O=privacyidea, CN=CA001
        Validity
            Not Before: May  5 17:58:46 2017 GMT
            Not After : May 25 17:58:46 2019 GMT
        Subject: CN=Steve Test/emailAddress=steve@openssl.org
        Subject Public Key Info:
            Public Key Algorithm: rsaEncryption
                Public-Key: (2048 bit)
                Modulus:
                    00:d2:81:89:20:51:48:0f:73:f4:11:32:24:d5:1f:
                    1c:fd:5c:f5:b6:e6:c5:f0:52:81:dc:d2:af:66:4a:
                    7c:93:31:61:5c:af:d1:6d:06:70:03:60:7c:72:0c:
                    88:dd:49:cd:9e:02:6c:d2:5a:d7:53:0f:f3:da:be:
                    69:64:b5:0f:0c:00:e3:b3:50:47:a3:b3:9b:ba:13:
                    50:d6:58:5a:4b:ab:39:e0:11:ca:0a:27:67:03:78:
                    22:66:6d:92:1e:1b:5c:49:ae:e6:6b:d1:8e:3b:9d:
                    06:d3:c6:ac:4d:53:43:10:ab:e8:96:c1:87:82:97:
                    99:8f:20:d3:99:12:37:31:84:e1:8a:ff:29:03:5f:
                    22:90:3e:7f:9b:e0:20:c1:ad:dc:ae:4c:39:1a:31:
                    96:17:02:8c:b2:d9:b4:0d:20:12:9b:7d:86:54:fd:
                    33:fd:c1:2a:62:46:f8:60:96:cf:6e:01:6f:22:df:
                    13:47:e7:97:ec:05:72:23:a3:62:f8:fa:ef:ac:9c:
                    72:f0:37:cb:2f:37:cf:90:a8:27:51:86:c6:d7:78:
                    08:8f:7e:25:a2:15:70:a2:fb:1c:b6:15:5e:a0:97:
                    8b:81:4c:09:28:8a:27:3b:94:bc:71:db:5b:71:37:
                    9a:2b:16:e0:6f:b5:c9:f5:4b:4f:20:ba:65:cf:af:
                    ad:ad
                Exponent: 65537 (0x10001)
        X509v3 extensions:
            X509v3 Key Usage: 
                Digital Signature, Key Encipherment
            X509v3 Basic Constraints: 
                CA:FALSE
            Netscape Cert Type: 
                SSL Server
            Netscape Comment: 
                OpenSSL Generated Server Certificate
            X509v3 Subject Key Identifier: 
                E5:25:6D:3E:AF:0D:DD:3F:4C:F2:45:19:39:D5:14:DB:7E:9C:C0:AD
            X509v3 Authority Key Identifier: 
                keyid:F4:A7:C0:CC:91:46:AF:64:F3:91:F2:27:F8:C8:B2:6F:8A:87:32:73
                DirName:/C=DE/ST=Hessen/O=privacyidea/CN=CA001
                serial:FB:C8:EB:AC:83:CD:12:07

            X509v3 Extended Key Usage: 
                TLS Web Server Authentication
    Signature Algorithm: sha256WithRSAEncryption
         08:d5:89:55:99:8e:b2:ca:16:12:ac:65:d9:93:d4:5d:58:9a:
         65:1f:0a:09:78:27:42:c4:34:5a:35:cc:87:e1:75:06:93:78:
         dc:eb:e7:30:50:d4:74:f4:9e:da:c9:a5:2f:72:06:38:1e:39:
         93:91:14:8b:3a:a3:aa:c5:fc:65:49:f2:df:69:ba:a1:0a:fc:
         e4:b6:da:bb:b4:cf:d4:1a:10:98:8f:2e:ae:98:cc:21:5e:8b:
         3e:2c:76:b1:1d:02:21:49:45:27:5e:fd:d0:e1:7d:6b:d5:81:
         7a:38:2b:25:4d:87:d3:5f:a3:81:e2:22:18:2b:94:38:fa:a9:
         63:ea:a1:2e:28:90:84:79:19:b6:de:9e:78:25:a5:4c:44:04:
         0b:77:be:dc:2d:3f:44:b4:56:3f:7f:e7:4f:cc:99:3a:21:9c:
         f2:20:01:3f:3a:b2:e4:b3:fe:c1:74:cf:3b:84:d1:a2:1b:3d:
         da:42:78:9f:e1:7c:fb:9d:60:27:f9:46:4f:ce:72:4b:ce:ab:
         8f:85:0d:e8:4d:15:ad:47:d7:d9:a3:e4:ee:71:6c:69:c6:75:
         f7:32:5f:42:6d:3c:a1:16:c7:b3:9f:f6:d4:56:ea:e4:20:36:
         6d:44:85:00:be:67:43:be:db:e1:6d:d2:b1:03:62:2e:5a:06:
         f5:fd:ec:6f
-----BEGIN CERTIFICATE-----
MIIECTCCAvGgAwIBAgIEEAAA1jANBgkqhkiG9w0BAQsFADBEMQswCQYDVQQGEwJE
RTEPMA0GA1UECAwGSGVzc2VuMRQwEgYDVQQKDAtwcml2YWN5aWRlYTEOMAwGA1UE
AwwFQ0EwMDEwHhcNMTcwNTA1MTc1ODQ2WhcNMTkwNTI1MTc1ODQ2WjA3MRMwEQYD
VQQDDApTdGV2ZSBUZXN0MSAwHgYJKoZIhvcNAQkBFhFzdGV2ZUBvcGVuc3NsLm9y
ZzCCASIwDQYJKoZIhvcNAQEBBQADggEPADCCAQoCggEBANKBiSBRSA9z9BEyJNUf
HP1c9bbmxfBSgdzSr2ZKfJMxYVyv0W0GcANgfHIMiN1JzZ4CbNJa11MP89q+aWS1
DwwA47NQR6Ozm7oTUNZYWkurOeARygonZwN4ImZtkh4bXEmu5mvRjjudBtPGrE1T
QxCr6JbBh4KXmY8g05kSNzGE4Yr/KQNfIpA+f5vgIMGt3K5MORoxlhcCjLLZtA0g
Ept9hlT9M/3BKmJG+GCWz24BbyLfE0fnl+wFciOjYvj676yccvA3yy83z5CoJ1GG
xtd4CI9+JaIVcKL7HLYVXqCXi4FMCSiKJzuUvHHbW3E3misW4G+1yfVLTyC6Zc+v
ra0CAwEAAaOCAQ4wggEKMAsGA1UdDwQEAwIFoDAJBgNVHRMEAjAAMBEGCWCGSAGG
+EIBAQQEAwIGQDAzBglghkgBhvhCAQ0EJhYkT3BlblNTTCBHZW5lcmF0ZWQgU2Vy
dmVyIENlcnRpZmljYXRlMB0GA1UdDgQWBBTlJW0+rw3dP0zyRRk51RTbfpzArTB0
BgNVHSMEbTBrgBT0p8DMkUavZPOR8if4yLJviocyc6FIpEYwRDELMAkGA1UEBhMC
REUxDzANBgNVBAgMBkhlc3NlbjEUMBIGA1UECgwLcHJpdmFjeWlkZWExDjAMBgNV
BAMMBUNBMDAxggkA+8jrrIPNEgcwEwYDVR0lBAwwCgYIKwYBBQUHAwEwDQYJKoZI
hvcNAQELBQADggEBAAjViVWZjrLKFhKsZdmT1F1YmmUfCgl4J0LENFo1zIfhdQaT
eNzr5zBQ1HT0ntrJpS9yBjgeOZORFIs6o6rF/GVJ8t9puqEK/OS22ru0z9QaEJiP
Lq6YzCFeiz4sdrEdAiFJRSde/dDhfWvVgXo4KyVNh9Nfo4HiIhgrlDj6qWPqoS4o
kIR5GbbennglpUxEBAt3vtwtP0S0Vj9/50/MmTohnPIgAT86suSz/sF0zzuE0aIb
PdpCeJ/hfPudYCf5Rk/OckvOq4+FDehNFa1H19mj5O5xbGnGdfcyX0JtPKEWx7Of
9tRW6uQgNm1EhQC+Z0O+2+Ft0rEDYi5aBvX97G8=
-----END CERTIFICATE-----
