Certificate:
    Data:
        Version: 3 (0x2)
        Serial Number: 268435671 (0x100000d7)
    Signature Algorithm: sha256WithRSAEncryption
        Issuer: C=DE, ST=Hessen, O=privacyidea, CN=CA001
        Validity
            Not Before: May  5 18:02:11 2017 GMT
            Not After : May  5 18:02:11 2018 GMT
        Subject: C=DE, ST=Hessen, O=privacyidea, CN=requester.localdomain
        Subject Public Key Info:
            Public Key Algorithm: rsaEncryption
                Public-Key: (2048 bit)
                Modulus:
                    00:cd:be:14:4f:fa:ce:01:3f:42:22:1b:1d:9c:af:
                    dd:92:d2:7f:db:6c:b7:3e:39:43:43:6b:13:03:f1:
                    05:f4:07:74:bc:76:69:28:0b:af:19:8e:d7:fc:e3:
                    cd:c6:58:f2:ca:7f:08:6d:53:fc:07:02:44:24:c6:
                    b4:34:4c:8c:04:fe:33:0e:40:e2:20:ba:02:73:5a:
                    f7:f5:4f:63:6e:cc:c6:b6:df:54:1d:37:39:7d:51:
                    36:26:5f:bd:dc:3f:a8:8b:6b:a2:ae:b6:9d:d6:21:
                    e7:df:41:b8:7a:28:2a:68:48:ca:a8:2d:ed:e1:e9:
                    46:5e:5a:72:6d:b4:84:38:87:91:fd:94:11:0b:28:
                    84:c6:c2:2f:2a:fb:01:f9:36:7a:09:75:d1:33:88:
                    3c:73:41:5b:c8:bf:94:89:70:a1:f0:c0:b9:2e:50:
                    53:1e:b1:17:64:69:f4:2d:81:e0:a9:0d:0e:32:e9:
                    ba:55:8a:85:f1:1b:6f:49:79:b4:7f:88:c3:0d:3e:
                    54:88:9b:3d:1f:38:8c:04:f3:ee:6a:63:2b:f5:c6:
                    db:b4:83:aa:c4:78:41:3a:7d:4b:e1:c8:3e:71:ca:
                    1b:61:59:ea:c6:c4:ca:32:5e:c9:e9:bf:12:29:e6:
                    c6:c3:63:fe:a0:55:da:7a:f1:60:98:4d:26:ed:fa:
                    70:2d
                Exponent: 65537 (0x10001)
        X509v3 extensions:
            X509v3 Key Usage: 
                Digital Signature, Key Encipherment
            X509v3 Basic Constraints: 
                CA:FALSE
            Netscape Cert Type: 
                SSL Server
            Netscape Comment: 
                OpenSSL Generated Server Certificate
            X509v3 Subject Key Identifier: 
                53:3F:ED:5D:09:07:B3:65:7B:AB:45:C9:24:5B:09:77:80:0A:96:ED
            X509v3 Authority Key Identifier: 
                keyid:F4:A7:C0:CC:91:46:AF:64:F3:91:F2:27:F8:C8:B2:6F:8A:87:32:73
                DirName:/C=DE/ST=Hessen/O=privacyidea/CN=CA001
                serial:FB:C8:EB:AC:83:CD:12:07

            X509v3 Extended Key Usage: 
                TLS Web Server Authentication
    Signature Algorithm: sha256WithRSAEncryption
         8d:38:78:22:e2:61:75:52:6f:1a:22:21:09:99:5b:76:04:9e:
         b9:be:57:b2:f0:eb:5b:75:9b:1d:a2:7a:f9:8a:e8:f1:b6:00:
         75:0a:83:1a:72:54:a4:dd:5e:b6:9e:97:ec:d7:25:91:b7:35:
         21:0b:03:d0:6b:b8:8b:eb:99:8d:a5:99:7f:45:7e:c0:a2:e9:
         1b:33:5e:8e:6c:9c:8d:d9:de:2e:83:2a:86:a3:e2:60:bd:1e:
         1d:28:fd:d0:47:02:08:b5:b2:7a:45:8a:95:c6:e5:ed:a0:f6:
         46:70:20:56:c1:61:24:7a:47:96:6e:3a:69:60:9f:9b:6f:17:
         7e:86:c9:d9:4c:73:62:d6:25:3d:b6:6f:a3:0b:d5:08:cf:d0:
         c0:e6:dc:40:58:d8:25:3a:a5:76:84:57:1a:05:53:32:19:90:
         71:c0:86:4b:02:01:ad:84:5a:43:c0:84:30:8c:a1:2c:6e:ac:
         03:43:49:be:ba:e9:63:20:f1:97:3c:af:c4:f7:d3:10:23:86:
         01:20:c9:8e:6f:fe:12:8c:0d:ae:95:4a:38:44:27:46:60:25:
         4d:7d:a2:64:ad:65:0f:9b:3a:77:33:22:63:24:d9:98:bd:84:
         8f:9e:de:72:b2:be:81:73:10:f6:f3:43:90:f9:01:fe:41:d0:
         59:e3:49:f8
-----BEGIN CERTIFICATE-----
MIIEJjCCAw6gAwIBAgIEEAAA1zANBgkqhkiG9w0BAQsFADBEMQswCQYDVQQGEwJE
RTEPMA0GA1UECAwGSGVzc2VuMRQwEgYDVQQKDAtwcml2YWN5aWRlYTEOMAwGA1UE
AwwFQ0EwMDEwHhcNMTcwNTA1MTgwMjExWhcNMTgwNTA1MTgwMjExWjBUMQswCQYD
VQQGEwJERTEPMA0GA1UECAwGSGVzc2VuMRQwEgYDVQQKDAtwcml2YWN5aWRlYTEe
MBwGA1UEAwwVcmVxdWVzdGVyLmxvY2FsZG9tYWluMIIBIjANBgkqhkiG9w0BAQEF
AAOCAQ8AMIIBCgKCAQEAzb4UT/rOAT9CIhsdnK/dktJ/22y3PjlDQ2sTA/EF9Ad0
vHZpKAuvGY7X/OPNxljyyn8IbVP8BwJEJMa0NEyMBP4zDkDiILoCc1r39U9jbszG
tt9UHTc5fVE2Jl+93D+oi2uirrad1iHn30G4eigqaEjKqC3t4elGXlpybbSEOIeR
/ZQRCyiExsIvKvsB+TZ6CXXRM4g8c0FbyL+UiXCh8MC5LlBTHrEXZGn0LYHgqQ0O
Mum6VYqF8RtvSXm0f4jDDT5UiJs9HziMBPPuamMr9cbbtIOqxHhBOn1L4cg+ccob
YVnqxsTKMl7J6b8SKebGw2P+oFXaevFgmE0m7fpwLQIDAQABo4IBDjCCAQowCwYD
VR0PBAQDAgWgMAkGA1UdEwQCMAAwEQYJYIZIAYb4QgEBBAQDAgZAMDMGCWCGSAGG
+EIBDQQmFiRPcGVuU1NMIEdlbmVyYXRlZCBTZXJ2ZXIgQ2VydGlmaWNhdGUwHQYD
VR0OBBYEFFM/7V0JB7Nle6tFySRbCXeACpbtMHQGA1UdIwRtMGuAFPSnwMyRRq9k
85HyJ/jIsm+KhzJzoUikRjBEMQswCQYDVQQGEwJERTEPMA0GA1UECAwGSGVzc2Vu
MRQwEgYDVQQKDAtwcml2YWN5aWRlYTEOMAwGA1UEAwwFQ0EwMDGCCQD7yOusg80S
BzATBgNVHSUEDDAKBggrBgEFBQcDATANBgkqhkiG9w0BAQsFAAOCAQEAjTh4IuJh
dVJvGiIhCZlbdgSeub5XsvDrW3WbHaJ6+Yro8bYAdQqDGnJUpN1etp6X7Nclkbc1
IQsD0Gu4i+uZjaWZf0V+wKLpGzNejmycjdneLoMqhqPiYL0eHSj90EcCCLWyekWK
lcbl7aD2RnAgVsFhJHpHlm46aWCfm28XfobJ2UxzYtYlPbZvowvVCM/QwObcQFjY
JTqldoRXGgVTMhmQccCGSwIBrYRaQ8CEMIyhLG6sA0NJvrrpYyDxlzyvxPfTECOG
ASDJjm/+EowNrpVKOEQnRmAlTX2iZK1lD5s6dzMiYyTZmL2Ej57ecrK+gXMQ9vND
kPkB/kHQWeNJ+A==
-----END CERTIFICATE-----
